target datalayout = "e-m:e-p270:32:32-p271:32:32-p272:64:64-i64:64-i128:128-f80:128-n8:16:32:64-S128"
target triple = "x86_64-pc-linux-gnu"

%struct.FunctionCallInfoBaseData = type { ptr, ptr, ptr, i32, i8, i16, [0 x %struct.NullableDatum] }
%struct.NullableDatum = type { i64, i8 }

; Function Attrs: inlinehint nounwind uwtable
define internal i64 @UInt16GetDatum(i16 noundef zeroext %0) #2 {
  %2 = alloca i16, align 2
  store i16 %0, ptr %2, align 2
  %3 = load i16, ptr %2, align 2
  %4 = zext i16 %3 to i64
  ret i64 %4
}

; Function Attrs: inlinehint nounwind uwtable
define internal i32 @DatumGetInt32(i64 noundef %0) #2 {
  %2 = alloca i64, align 8
  store i64 %0, ptr %2, align 8
  %3 = load i64, ptr %2, align 8
  %4 = trunc i64 %3 to i32
  ret i32 %4
}

; Function Attrs: nounwind uwtable
define dso_local i64 @gist_stratnum_common(ptr noundef %0) #0 {
  %2 = alloca i64, align 8
  %3 = alloca ptr, align 8
  %4 = alloca i32, align 4
  %5 = alloca i32, align 4
  store ptr %0, ptr %3, align 8
  call void @llvm.lifetime.start.p0(i64 4, ptr %4) #8
  %6 = load ptr, ptr %3, align 8
  %7 = getelementptr inbounds nuw %struct.FunctionCallInfoBaseData, ptr %6, i32 0, i32 6
  %8 = getelementptr inbounds [0 x %struct.NullableDatum], ptr %7, i64 0, i64 0
  %9 = getelementptr inbounds nuw %struct.NullableDatum, ptr %8, i32 0, i32 0
  %10 = load i64, ptr %9, align 8
  %11 = call i32 @DatumGetInt32(i64 noundef %10)
  store i32 %11, ptr %4, align 4
  %12 = load i32, ptr %4, align 4
  switch i32 %12, label %27 [
    i32 3, label %13
    i32 1, label %15
    i32 2, label %17
    i32 5, label %19
    i32 4, label %21
    i32 7, label %23
    i32 8, label %25
  ]

13:                                               ; preds = %1
  %14 = call i64 @UInt16GetDatum(i16 noundef zeroext 18)
  store i64 %14, ptr %2, align 8
  store i32 1, ptr %5, align 4
  br label %29

15:                                               ; preds = %1
  %16 = call i64 @UInt16GetDatum(i16 noundef zeroext 20)
  store i64 %16, ptr %2, align 8
  store i32 1, ptr %5, align 4
  br label %29

17:                                               ; preds = %1
  %18 = call i64 @UInt16GetDatum(i16 noundef zeroext 21)
  store i64 %18, ptr %2, align 8
  store i32 1, ptr %5, align 4
  br label %29

19:                                               ; preds = %1
  %20 = call i64 @UInt16GetDatum(i16 noundef zeroext 22)
  store i64 %20, ptr %2, align 8
  store i32 1, ptr %5, align 4
  br label %29

21:                                               ; preds = %1
  %22 = call i64 @UInt16GetDatum(i16 noundef zeroext 23)
  store i64 %22, ptr %2, align 8
  store i32 1, ptr %5, align 4
  br label %29

23:                                               ; preds = %1
  %24 = call i64 @UInt16GetDatum(i16 noundef zeroext 3)
  store i64 %24, ptr %2, align 8
  store i32 1, ptr %5, align 4
  br label %29

25:                                               ; preds = %1
  %26 = call i64 @UInt16GetDatum(i16 noundef zeroext 8)
  store i64 %26, ptr %2, align 8
  store i32 1, ptr %5, align 4
  br label %29

27:                                               ; preds = %1
  %28 = call i64 @UInt16GetDatum(i16 noundef zeroext 0)
  store i64 %28, ptr %2, align 8
  store i32 1, ptr %5, align 4
  br label %29

29:                                               ; preds = %27, %25, %23, %21, %19, %17, %15, %13
  call void @llvm.lifetime.end.p0(i64 4, ptr %4) #8
  %30 = load i64, ptr %2, align 8
  ret i64 %30
}