; Function Attrs: mustprogress nofree norecurse nosync nounwind willreturn memory(argmem: read) uwtable
define dso_local range(i64 0, 24) i64 @gist_stratnum_common(ptr noundef readonly captures(none) %0) local_unnamed_addr #8 {
  %2 = getelementptr inbounds nuw i8, ptr %0, i64 32
  %3 = load i64, ptr %2, align 8
  %4 = trunc i64 %3 to i32
  %switch.tableidx = add i32 %4, -1
  %5 = icmp ult i32 %switch.tableidx, 8
  br i1 %5, label %switch.lookup, label %7

switch.lookup:                                    ; preds = %1
  %6 = zext nneg i32 %switch.tableidx to i64
  %switch.gep = getelementptr inbounds nuw [8 x i64], ptr @switch.table.gist_stratnum_common, i64 0, i64 %6
  %switch.load = load i64, ptr %switch.gep, align 8
  br label %7

7:                                                ; preds = %1, %switch.lookup
  %.0 = phi i64 [ %switch.load, %switch.lookup ], [ 0, %1 ]
  ret i64 %.0
}